; ModuleID = 'source-C-CXX/4/834.c'
source_filename = "source-C-CXX/4/834.c"
target datalayout = "e-m:e-p270:32:32-p271:32:32-p272:64:64-i64:64-f80:128-n8:16:32:64-S128"
target triple = "x86_64-pc-linux-gnu"

@.str = private unnamed_addr constant [5 x i8] c"%lf\0A\00", align 1
@.str.1 = private unnamed_addr constant [4 x i8] c"%s\0A\00", align 1
@.str.2 = private unnamed_addr constant [3 x i8] c"%s\00", align 1
@.str.3 = private unnamed_addr constant [6 x i8] c"error\00", align 1
@.str.4 = private unnamed_addr constant [4 x i8] c"yes\00", align 1
@.str.5 = private unnamed_addr constant [3 x i8] c"no\00", align 1

; Function Attrs: nofree nounwind sspstrong uwtable
define dso_local i32 @main() local_unnamed_addr #0 {
  %1 = alloca double, align 8
  %2 = alloca [500 x i8], align 16
  %3 = alloca [500 x i8], align 16
  %4 = bitcast double* %1 to i8*
  call void @llvm.lifetime.start.p0i8(i64 8, i8* nonnull %4) #5
  %5 = call i32 (i8*, ...) @__isoc99_scanf(i8* getelementptr inbounds ([5 x i8], [5 x i8]* @.str, i64 0, i64 0), double* nonnull %1)
  %6 = getelementptr inbounds [500 x i8], [500 x i8]* %2, i64 0, i64 0
  call void @llvm.lifetime.start.p0i8(i64 500, i8* nonnull %6) #5
  call void @llvm.memset.p0i8.i64(i8* noundef nonnull align 16 dereferenceable(500) %6, i8 0, i64 500, i1 false)
  %7 = getelementptr inbounds [500 x i8], [500 x i8]* %3, i64 0, i64 0
  call void @llvm.lifetime.start.p0i8(i64 500, i8* nonnull %7) #5
  call void @llvm.memset.p0i8.i64(i8* noundef nonnull align 16 dereferenceable(500) %7, i8 0, i64 500, i1 false)
  %8 = call i32 (i8*, ...) @__isoc99_scanf(i8* getelementptr inbounds ([4 x i8], [4 x i8]* @.str.1, i64 0, i64 0), [500 x i8]* nonnull %2)
  %9 = call i32 (i8*, ...) @__isoc99_scanf(i8* getelementptr inbounds ([3 x i8], [3 x i8]* @.str.2, i64 0, i64 0), [500 x i8]* nonnull %3)
  %10 = call i64 @strlen(i8* noundef nonnull %6) #6
  %11 = trunc i64 %10 to i32
  %12 = call i64 @strlen(i8* noundef nonnull %7) #6
  %13 = trunc i64 %12 to i32
  %14 = icmp eq i32 %11, %13
  br i1 %14, label %15, label %42

15:                                               ; preds = %0, %24
  %16 = phi i64 [ %31, %24 ], [ 0, %0 ]
  %17 = phi i32 [ %25, %24 ], [ 0, %0 ]
  %18 = phi i32 [ %30, %24 ], [ 0, %0 ]
  %19 = getelementptr inbounds [500 x i8], [500 x i8]* %2, i64 0, i64 %16
  %20 = load i8, i8* %19, align 1, !tbaa !5
  switch i8 %20, label %23 [
    i8 0, label %21
    i8 65, label %24
    i8 84, label %24
    i8 67, label %24
    i8 71, label %24
  ]

21:                                               ; preds = %15
  %22 = icmp eq i32 %17, 0
  br i1 %22, label %32, label %42

23:                                               ; preds = %15
  br label %24

24:                                               ; preds = %15, %15, %15, %15, %23
  %25 = phi i32 [ 1, %23 ], [ %17, %15 ], [ %17, %15 ], [ %17, %15 ], [ %17, %15 ]
  %26 = getelementptr inbounds [500 x i8], [500 x i8]* %3, i64 0, i64 %16
  %27 = load i8, i8* %26, align 1, !tbaa !5
  %28 = icmp eq i8 %20, %27
  %29 = zext i1 %28 to i32
  %30 = add nuw nsw i32 %18, %29
  %31 = add nuw i64 %16, 1
  br label %15, !llvm.loop !8

32:                                               ; preds = %21
  %33 = sitofp i32 %18 to double
  %34 = add nsw i32 %11, -3
  %35 = sitofp i32 %34 to double
  %36 = fdiv double %33, %35
  %37 = fptosi double %36 to i32
  %38 = sitofp i32 %37 to double
  %39 = load double, double* %1, align 8, !tbaa !10
  %40 = fcmp ugt double %39, %38
  %41 = select i1 %40, i8* getelementptr inbounds ([3 x i8], [3 x i8]* @.str.5, i64 0, i64 0), i8* getelementptr inbounds ([4 x i8], [4 x i8]* @.str.4, i64 0, i64 0)
  br label %42

42:                                               ; preds = %21, %32, %0
  %43 = phi i8* [ getelementptr inbounds ([6 x i8], [6 x i8]* @.str.3, i64 0, i64 0), %0 ], [ %41, %32 ], [ getelementptr inbounds ([6 x i8], [6 x i8]* @.str.3, i64 0, i64 0), %21 ]
  %44 = call i32 (i8*, ...) @printf(i8* nonnull dereferenceable(1) %43)
  call void @llvm.lifetime.end.p0i8(i64 500, i8* nonnull %7) #5
  call void @llvm.lifetime.end.p0i8(i64 500, i8* nonnull %6) #5
  call void @llvm.lifetime.end.p0i8(i64 8, i8* nonnull %4) #5
  ret i32 0
}

; Function Attrs: argmemonly mustprogress nofree nosync nounwind willreturn
declare void @llvm.lifetime.start.p0i8(i64 immarg, i8* nocapture) #1

; Function Attrs: nofree nounwind
declare noundef i32 @__isoc99_scanf(i8* nocapture noundef readonly, ...) local_unnamed_addr #2

; Function Attrs: argmemonly mustprogress nofree nounwind willreturn writeonly
declare void @llvm.memset.p0i8.i64(i8* nocapture writeonly, i8, i64, i1 immarg) #3

; Function Attrs: argmemonly mustprogress nofree nounwind readonly willreturn
declare i64 @strlen(i8* nocapture) local_unnamed_addr #4

; Function Attrs: nofree nounwind
declare noundef i32 @printf(i8* nocapture noundef readonly, ...) local_unnamed_addr #2

; Function Attrs: argmemonly mustprogress nofree nosync nounwind willreturn
declare void @llvm.lifetime.end.p0i8(i64 immarg, i8* nocapture) #1


!llvm.module.flags = !{!0, !1, !2, !3}
!llvm.ident = !{!4}

!0 = !{i32 1, !"wchar_size", i32 4}
!1 = !{i32 7, !"PIC Level", i32 2}
!2 = !{i32 7, !"PIE Level", i32 2}
!3 = !{i32 7, !"uwtable", i32 1}
!4 = !{!"clang version 13.0.0"}
!5 = !{!6, !6, i64 0}
!6 = !{!"omnipotent char", !7, i64 0}
!7 = !{!"Simple C/C++ TBAA"}
!8 = distinct !{!8, !9}
!9 = !{!"llvm.loop.mustprogress"}
!10 = !{!11, !11, i64 0}
!11 = !{!"double", !6, i64 0}
